; Function Attrs: mustprogress uwtable
define void @_ZN6icu_7515NumberingSystemC2Ev(ptr noundef nonnull align 8 dereferenceable(86) %this) unnamed_addr #1 align 2 personality ptr @__gxx_personality_v0 {
invoke.cont:
  %defaultDigits = alloca %"class.icu_75::UnicodeString", align 8
  %agg.tmp = alloca %"class.icu_75::ConstChar16Ptr", align 8
  store ptr getelementptr inbounds ({ [6 x ptr] }, ptr @_ZTVN6icu_7515NumberingSystemE, i64 0, i32 0, i64 2), ptr %this, align 8
  %desc = getelementptr inbounds i8, ptr %this, i64 8
  store ptr getelementptr inbounds ({ [13 x ptr] }, ptr @_ZTVN6icu_7513UnicodeStringE, i64 0, i32 0, i64 2), ptr %desc, align 8
  %fUnion2.i = getelementptr inbounds i8, ptr %this, i64 16
  store i16 2, ptr %fUnion2.i, align 8
  %radix = getelementptr inbounds i8, ptr %this, i64 72
  store i32 10, ptr %radix, align 8
  %algorithmic = getelementptr inbounds i8, ptr %this, i64 76
  store i8 0, ptr %algorithmic, align 4
  store ptr @.str, ptr %agg.tmp, align 8
  invoke void @_ZN6icu_7513UnicodeStringC1EaNS_14ConstChar16PtrEi(ptr noundef nonnull align 8 dereferenceable(64) %defaultDigits, i8 noundef signext 1, ptr noundef nonnull %agg.tmp, i32 noundef -1)
          to label %invoke.cont5 unwind label %lpad4

invoke.cont5:                                     ; preds = %invoke.cont
  %0 = load ptr, ptr %agg.tmp, align 8
  call void asm sideeffect "", "rm,~{memory},~{dirflag},~{fpsr},~{flags}"(ptr %0) #16, !srcloc !4
  %call.i3 = invoke noundef nonnull align 8 dereferenceable(64) ptr @_ZN6icu_7513UnicodeString8copyFromERKS0_a(ptr noundef nonnull align 8 dereferenceable(64) %desc, ptr noundef nonnull align 8 dereferenceable(64) %defaultDigits, i8 noundef signext 0)
          to label %invoke.cont8 unwind label %lpad7

invoke.cont8:                                     ; preds = %invoke.cont5
  %name = getelementptr inbounds i8, ptr %this, i64 77
  call void @llvm.memcpy.p0.p0.i64(ptr noundef nonnull align 1 dereferenceable(5) %name, ptr noundef nonnull align 1 dereferenceable(5) @_ZN6icu_75L5gLatnE, i64 5, i1 false) #16
  call void @_ZN6icu_7513UnicodeStringD1Ev(ptr noundef nonnull align 8 dereferenceable(64) %defaultDigits) #16
  ret void

lpad4:                                            ; preds = %invoke.cont
  %1 = landingpad { ptr, i32 }
          cleanup
  %2 = load ptr, ptr %agg.tmp, align 8
  call void asm sideeffect "", "rm,~{memory},~{dirflag},~{fpsr},~{flags}"(ptr %2) #16, !srcloc !4
  br label %ehcleanup

lpad7:                                            ; preds = %invoke.cont5
  %3 = landingpad { ptr, i32 }
          cleanup
  call void @_ZN6icu_7513UnicodeStringD1Ev(ptr noundef nonnull align 8 dereferenceable(64) %defaultDigits) #16
  br label %ehcleanup

ehcleanup:                                        ; preds = %lpad7, %lpad4
  %.pn = phi { ptr, i32 } [ %3, %lpad7 ], [ %1, %lpad4 ]
  call void @_ZN6icu_7513UnicodeStringD1Ev(ptr noundef nonnull align 8 dereferenceable(64) %desc) #16
  call void @_ZN6icu_757UObjectD2Ev(ptr noundef nonnull align 8 dereferenceable(8) %this) #16
  resume { ptr, i32 } %.pn
}